; ModuleID = 'source-C-CXX/4/1020.c'
source_filename = "source-C-CXX/4/1020.c"
target datalayout = "e-m:e-p270:32:32-p271:32:32-p272:64:64-i64:64-f80:128-n8:16:32:64-S128"
target triple = "x86_64-pc-linux-gnu"

@.str = private unnamed_addr constant [5 x i8] c"%lf\0A\00", align 1
@.str.1 = private unnamed_addr constant [6 x i8] c"error\00", align 1
@.str.2 = private unnamed_addr constant [4 x i8] c"yes\00", align 1
@.str.3 = private unnamed_addr constant [3 x i8] c"no\00", align 1

; Function Attrs: nounwind sspstrong uwtable
define dso_local i32 @main() local_unnamed_addr #0 {
  %1 = alloca double, align 8
  %2 = alloca [500 x i8], align 16
  %3 = alloca [500 x i8], align 16
  %4 = bitcast double* %1 to i8*
  call void @llvm.lifetime.start.p0i8(i64 8, i8* nonnull %4) #5
  %5 = getelementptr inbounds [500 x i8], [500 x i8]* %2, i64 0, i64 0
  call void @llvm.lifetime.start.p0i8(i64 500, i8* nonnull %5) #5
  %6 = getelementptr inbounds [500 x i8], [500 x i8]* %3, i64 0, i64 0
  call void @llvm.lifetime.start.p0i8(i64 500, i8* nonnull %6) #5
  %7 = call i32 (i8*, ...) @__isoc99_scanf(i8* getelementptr inbounds ([5 x i8], [5 x i8]* @.str, i64 0, i64 0), double* nonnull %1)
  %8 = call i32 (i8*, ...) bitcast (i32 (...)* @gets to i32 (i8*, ...)*)(i8* nonnull %5) #5
  %9 = call i32 (i8*, ...) bitcast (i32 (...)* @gets to i32 (i8*, ...)*)(i8* nonnull %6) #5
  %10 = call i64 @strlen(i8* noundef nonnull %5) #6
  %11 = trunc i64 %10 to i32
  %12 = call i64 @strlen(i8* noundef nonnull %6) #6
  %13 = trunc i64 %12 to i32
  %14 = icmp sgt i32 %11, %13
  br i1 %14, label %39, label %15

15:                                               ; preds = %0
  %16 = sitofp i32 %11 to double
  %17 = load double, double* %1, align 8, !tbaa !5
  %18 = fcmp ogt double %17, %16
  br i1 %18, label %39, label %19

19:                                               ; preds = %15
  %20 = icmp eq i32 %11, %13
  br i1 %20, label %21, label %42

21:                                               ; preds = %19, %26
  %22 = phi i64 [ %32, %26 ], [ 0, %19 ]
  %23 = phi i32 [ %31, %26 ], [ 0, %19 ]
  %24 = getelementptr inbounds [500 x i8], [500 x i8]* %2, i64 0, i64 %22
  %25 = load i8, i8* %24, align 1, !tbaa !9
  switch i8 %25, label %39 [
    i8 0, label %33
    i8 65, label %26
    i8 84, label %26
    i8 67, label %26
    i8 71, label %26
  ]

26:                                               ; preds = %21, %21, %21, %21
  %27 = getelementptr inbounds [500 x i8], [500 x i8]* %3, i64 0, i64 %22
  %28 = load i8, i8* %27, align 1, !tbaa !9
  %29 = icmp eq i8 %25, %28
  %30 = zext i1 %29 to i32
  %31 = add nuw nsw i32 %23, %30
  %32 = add nuw i64 %22, 1
  br label %21, !llvm.loop !10

33:                                               ; preds = %21
  %34 = sitofp i32 %23 to double
  %35 = fdiv double %34, %16
  %36 = fcmp ogt double %35, %17
  br i1 %36, label %39, label %37

37:                                               ; preds = %33
  %38 = fcmp ugt double %35, %17
  br i1 %38, label %42, label %39

39:                                               ; preds = %21, %37, %33, %0, %15
  %40 = phi i8* [ getelementptr inbounds ([6 x i8], [6 x i8]* @.str.1, i64 0, i64 0), %15 ], [ getelementptr inbounds ([6 x i8], [6 x i8]* @.str.1, i64 0, i64 0), %0 ], [ getelementptr inbounds ([4 x i8], [4 x i8]* @.str.2, i64 0, i64 0), %33 ], [ getelementptr inbounds ([3 x i8], [3 x i8]* @.str.3, i64 0, i64 0), %37 ], [ getelementptr inbounds ([6 x i8], [6 x i8]* @.str.1, i64 0, i64 0), %21 ]
  %41 = call i32 (i8*, ...) @printf(i8* nonnull dereferenceable(1) %40)
  br label %42

42:                                               ; preds = %39, %37, %19
  call void @llvm.lifetime.end.p0i8(i64 500, i8* nonnull %6) #5
  call void @llvm.lifetime.end.p0i8(i64 500, i8* nonnull %5) #5
  call void @llvm.lifetime.end.p0i8(i64 8, i8* nonnull %4) #5
  ret i32 0
}

; Function Attrs: argmemonly mustprogress nofree nosync nounwind willreturn
declare void @llvm.lifetime.start.p0i8(i64 immarg, i8* nocapture) #1

; Function Attrs: nofree nounwind
declare noundef i32 @__isoc99_scanf(i8* nocapture noundef readonly, ...) local_unnamed_addr #2

declare i32 @gets(...) local_unnamed_addr #3

; Function Attrs: argmemonly mustprogress nofree nounwind readonly willreturn
declare i64 @strlen(i8* nocapture) local_unnamed_addr #4

; Function Attrs: nofree nounwind
declare noundef i32 @printf(i8* nocapture noundef readonly, ...) local_unnamed_addr #2

; Function Attrs: argmemonly mustprogress nofree nosync nounwind willreturn
declare void @llvm.lifetime.end.p0i8(i64 immarg, i8* nocapture) #1


!llvm.module.flags = !{!0, !1, !2, !3}
!llvm.ident = !{!4}

!0 = !{i32 1, !"wchar_size", i32 4}
!1 = !{i32 7, !"PIC Level", i32 2}
!2 = !{i32 7, !"PIE Level", i32 2}
!3 = !{i32 7, !"uwtable", i32 1}
!4 = !{!"clang version 13.0.0"}
!5 = !{!6, !6, i64 0}
!6 = !{!"double", !7, i64 0}
!7 = !{!"omnipotent char", !8, i64 0}
!8 = !{!"Simple C/C++ TBAA"}
!9 = !{!7, !7, i64 0}
!10 = distinct !{!10, !11}
!11 = !{!"llvm.loop.mustprogress"}
